; Function Attrs: mustprogress uwtable
define internal noundef ptr @_ZNK7testing8internal26CartesianProductGenerator3IN11opencv_test12_GLOBAL__N_112_GLOBAL__N_110GuideTypesENS4_8SrcTypesEN2cv5Size_IiEEE5BeginEv(ptr noundef nonnull align 8 dereferenceable(56) %0) unnamed_addr #3 align 2 personality ptr @__gxx_personality_v0 {
  %2 = alloca %"class.testing::internal::ParamIterator", align 8
  %3 = alloca %"class.testing::internal::ParamIterator.65", align 8
  %4 = alloca %"class.testing::internal::ParamIterator.67", align 8
  %5 = tail call noalias noundef nonnull dereferenceable(104) ptr @_Znwm(i64 noundef 104) #29
  %6 = getelementptr inbounds i8, ptr %0, i64 8
  %.val = load ptr, ptr %6, align 8
  tail call void @llvm.experimental.noalias.scope.decl(metadata !51)
  %7 = load ptr, ptr %.val, align 8, !noalias !51
  %8 = getelementptr inbounds i8, ptr %7, i64 16
  %9 = load ptr, ptr %8, align 8, !noalias !51
  %10 = invoke noundef ptr %9(ptr noundef nonnull align 8 dereferenceable(8) %.val)
          to label %11 unwind label %53

11:                                               ; preds = %1
  store ptr %10, ptr %2, align 8, !alias.scope !51
  %12 = getelementptr inbounds i8, ptr %0, i64 24
  %.val9 = load ptr, ptr %12, align 8
  tail call void @llvm.experimental.noalias.scope.decl(metadata !54)
  %13 = load ptr, ptr %.val9, align 8, !noalias !54
  %14 = getelementptr inbounds i8, ptr %13, i64 16
  %15 = load ptr, ptr %14, align 8, !noalias !54
  %16 = invoke noundef ptr %15(ptr noundef nonnull align 8 dereferenceable(8) %.val9)
          to label %17 unwind label %55

17:                                               ; preds = %11
  store ptr %16, ptr %3, align 8, !alias.scope !54
  %18 = getelementptr inbounds i8, ptr %0, i64 40
  tail call void @llvm.experimental.noalias.scope.decl(metadata !57)
  %19 = load ptr, ptr %18, align 8, !noalias !57
  %20 = load ptr, ptr %19, align 8, !noalias !57
  %21 = getelementptr inbounds i8, ptr %20, i64 16
  %22 = load ptr, ptr %21, align 8, !noalias !57
  %23 = invoke noundef ptr %22(ptr noundef nonnull align 8 dereferenceable(8) %19)
          to label %24 unwind label %57

24:                                               ; preds = %17
  store ptr %23, ptr %4, align 8, !alias.scope !57
  invoke fastcc void @_ZN7testing8internal26CartesianProductGenerator3IN11opencv_test12_GLOBAL__N_112_GLOBAL__N_110GuideTypesENS4_8SrcTypesEN2cv5Size_IiEEE8IteratorC2EPKNS0_23ParamGeneratorInterfaceISt5tupleIJS5_S6_S9_EEEERKNS0_14ParamGeneratorIS5_EERKNS0_13ParamIteratorIS5_EERKNSI_IS6_EERKNSM_IS6_EERKNSI_IS9_EERKNSM_IS9_EE(ptr noundef nonnull align 8 dereferenceable(104) %5, ptr noundef nonnull %0, ptr noundef nonnull align 8 dereferenceable(16) %6, ptr noundef nonnull align 8 dereferenceable(8) %2, ptr noundef nonnull align 8 dereferenceable(16) %12, ptr noundef nonnull align 8 dereferenceable(8) %3, ptr noundef nonnull align 8 dereferenceable(16) %18, ptr noundef nonnull align 8 dereferenceable(8) %4)
          to label %25 unwind label %59

25:                                               ; preds = %24
  %.not.i.i.i = icmp eq ptr %23, null
  br i1 %.not.i.i.i, label %_ZN7testing8internal13ParamIteratorIN2cv5Size_IiEEED2Ev.exit, label %26

26:                                               ; preds = %25
  %27 = invoke noundef zeroext i1 @_ZN7testing8internal6IsTrueEb(i1 noundef zeroext true)
          to label %.noexc.i.i unwind label %32

.noexc.i.i:                                       ; preds = %26
  br i1 %27, label %28, label %_ZN7testing8internal13ParamIteratorIN2cv5Size_IiEEED2Ev.exit

28:                                               ; preds = %.noexc.i.i
  %29 = load ptr, ptr %23, align 8
  %30 = getelementptr inbounds i8, ptr %29, i64 8
  %31 = load ptr, ptr %30, align 8
  tail call void %31(ptr noundef nonnull align 8 dereferenceable(8) %23) #26
  br label %_ZN7testing8internal13ParamIteratorIN2cv5Size_IiEEED2Ev.exit

32:                                               ; preds = %26
  %33 = landingpad { ptr, i32 }
          catch ptr null
  %34 = extractvalue { ptr, i32 } %33, 0
  tail call void @__clang_call_terminate(ptr %34) #27
  unreachable

_ZN7testing8internal13ParamIteratorIN2cv5Size_IiEEED2Ev.exit: ; preds = %.noexc.i.i, %28, %25
  %.not.i.i.i10 = icmp eq ptr %16, null
  br i1 %.not.i.i.i10, label %_ZN7testing8internal13ParamIteratorIN11opencv_test12_GLOBAL__N_112_GLOBAL__N_18SrcTypesEED2Ev.exit, label %35

35:                                               ; preds = %_ZN7testing8internal13ParamIteratorIN2cv5Size_IiEEED2Ev.exit
  %36 = invoke noundef zeroext i1 @_ZN7testing8internal6IsTrueEb(i1 noundef zeroext true)
          to label %.noexc.i.i11 unwind label %41

.noexc.i.i11:                                     ; preds = %35
  br i1 %36, label %37, label %_ZN7testing8internal13ParamIteratorIN11opencv_test12_GLOBAL__N_112_GLOBAL__N_18SrcTypesEED2Ev.exit

37:                                               ; preds = %.noexc.i.i11
  %38 = load ptr, ptr %16, align 8
  %39 = getelementptr inbounds i8, ptr %38, i64 8
  %40 = load ptr, ptr %39, align 8
  tail call void %40(ptr noundef nonnull align 8 dereferenceable(8) %16) #26
  br label %_ZN7testing8internal13ParamIteratorIN11opencv_test12_GLOBAL__N_112_GLOBAL__N_18SrcTypesEED2Ev.exit

41:                                               ; preds = %35
  %42 = landingpad { ptr, i32 }
          catch ptr null
  %43 = extractvalue { ptr, i32 } %42, 0
  tail call void @__clang_call_terminate(ptr %43) #27
  unreachable

_ZN7testing8internal13ParamIteratorIN11opencv_test12_GLOBAL__N_112_GLOBAL__N_18SrcTypesEED2Ev.exit: ; preds = %.noexc.i.i11, %37, %_ZN7testing8internal13ParamIteratorIN2cv5Size_IiEEED2Ev.exit
  %.not.i.i.i12 = icmp eq ptr %10, null
  br i1 %.not.i.i.i12, label %_ZN7testing8internal13ParamIteratorIN11opencv_test12_GLOBAL__N_112_GLOBAL__N_110GuideTypesEED2Ev.exit, label %44

44:                                               ; preds = %_ZN7testing8internal13ParamIteratorIN11opencv_test12_GLOBAL__N_112_GLOBAL__N_18SrcTypesEED2Ev.exit
  %45 = invoke noundef zeroext i1 @_ZN7testing8internal6IsTrueEb(i1 noundef zeroext true)
          to label %.noexc.i.i13 unwind label %50

.noexc.i.i13:                                     ; preds = %44
  br i1 %45, label %46, label %_ZN7testing8internal13ParamIteratorIN11opencv_test12_GLOBAL__N_112_GLOBAL__N_110GuideTypesEED2Ev.exit

46:                                               ; preds = %.noexc.i.i13
  %47 = load ptr, ptr %10, align 8
  %48 = getelementptr inbounds i8, ptr %47, i64 8
  %49 = load ptr, ptr %48, align 8
  tail call void %49(ptr noundef nonnull align 8 dereferenceable(8) %10) #26
  br label %_ZN7testing8internal13ParamIteratorIN11opencv_test12_GLOBAL__N_112_GLOBAL__N_110GuideTypesEED2Ev.exit

50:                                               ; preds = %44
  %51 = landingpad { ptr, i32 }
          catch ptr null
  %52 = extractvalue { ptr, i32 } %51, 0
  tail call void @__clang_call_terminate(ptr %52) #27
  unreachable

_ZN7testing8internal13ParamIteratorIN11opencv_test12_GLOBAL__N_112_GLOBAL__N_110GuideTypesEED2Ev.exit: ; preds = %.noexc.i.i13, %46, %_ZN7testing8internal13ParamIteratorIN11opencv_test12_GLOBAL__N_112_GLOBAL__N_18SrcTypesEED2Ev.exit
  ret ptr %5

53:                                               ; preds = %1
  %54 = landingpad { ptr, i32 }
          cleanup
  br label %63

55:                                               ; preds = %11
  %56 = landingpad { ptr, i32 }
          cleanup
  br label %62

57:                                               ; preds = %17
  %58 = landingpad { ptr, i32 }
          cleanup
  br label %61

59:                                               ; preds = %24
  %60 = landingpad { ptr, i32 }
          cleanup
  call void @_ZN7testing8internal13ParamIteratorIN2cv5Size_IiEEED2Ev(ptr noundef nonnull align 8 dereferenceable(8) %4) #26
  br label %61

61:                                               ; preds = %59, %57
  %.pn = phi { ptr, i32 } [ %60, %59 ], [ %58, %57 ]
  call fastcc void @_ZN7testing8internal13ParamIteratorIN11opencv_test12_GLOBAL__N_112_GLOBAL__N_18SrcTypesEED2Ev(ptr noundef nonnull align 8 dereferenceable(8) %3) #26
  br label %62

62:                                               ; preds = %61, %55
  %.pn.pn = phi { ptr, i32 } [ %.pn, %61 ], [ %56, %55 ]
  call fastcc void @_ZN7testing8internal13ParamIteratorIN11opencv_test12_GLOBAL__N_112_GLOBAL__N_110GuideTypesEED2Ev(ptr noundef nonnull align 8 dereferenceable(8) %2) #26
  br label %63

63:                                               ; preds = %53, %62
  %.pn.pn.pn = phi { ptr, i32 } [ %.pn.pn, %62 ], [ %54, %53 ]
  call void @_ZdlPv(ptr noundef nonnull %5) #30
  resume { ptr, i32 } %.pn.pn.pn
}